Certificate:
    Data:
        Version: 3 (0x2)
        Serial Number:
            dc:c6:32:8a:43:9c:5f:d0:16:ab:9f:f4:48:f4:69:9a
        Signature Algorithm: sha256WithRSAEncryption
        Issuer: CN=Easy-RSA CA
        Validity
            Not Before: Jul 23 11:06:48 2023 GMT
            Not After : Oct 25 11:06:48 2025 GMT
        Subject: CN=openvpn
        Subject Public Key Info:
            Public Key Algorithm: rsaEncryption
                Public-Key: (2048 bit)
                Modulus:
                    00:b5:b6:5d:79:f0:e5:c4:3b:5d:fb:36:db:28:31:
                    19:82:78:31:00:b7:88:9e:35:c1:8b:3c:f8:c1:ce:
                    7a:4a:3a:6a:97:d7:1e:b0:d7:84:f6:63:92:db:f3:
                    16:a9:ce:c4:be:db:3a:61:5e:5a:08:7a:00:59:ca:
                    19:41:8c:6e:c4:70:fc:99:1a:f9:9a:35:d9:18:b8:
                    8b:e7:cb:90:c6:c0:22:84:fd:2c:4e:ea:4e:2b:86:
                    fe:9d:07:92:e4:3c:5f:ca:ae:7a:83:ed:76:15:70:
                    b6:8b:11:57:24:bd:ad:fb:20:d0:04:8e:f6:40:45:
                    2e:57:99:78:1b:c6:f2:37:49:1d:68:f5:05:26:b9:
                    86:6f:ef:34:38:82:bc:65:00:06:53:55:3b:0d:fd:
                    73:56:cc:98:3c:88:db:a7:fd:cb:30:4f:1a:17:33:
                    38:dd:9c:16:d5:a0:43:3d:27:a2:0f:4b:9f:21:4f:
                    a1:7e:ca:03:fb:8f:4b:eb:d6:58:5d:63:39:d1:ae:
                    7f:80:5d:b7:ad:41:eb:09:99:77:5c:0a:96:7c:03:
                    2d:03:9d:5f:12:11:20:6a:c7:55:bf:37:f9:53:79:
                    be:6d:e2:b8:4d:83:01:cb:dd:7f:26:b8:aa:90:4f:
                    a5:a0:87:a2:13:a9:98:cf:2d:0b:13:5c:50:fc:e1:
                    50:b9
                Exponent: 65537 (0x10001)
        X509v3 extensions:
            X509v3 Basic Constraints: 
                CA:FALSE
            X509v3 Subject Key Identifier: 
                1D:F2:57:E4:C2:11:E2:01:65:0F:01:B5:17:AF:7D:B6:22:77:F9:1B
            X509v3 Authority Key Identifier: 
                keyid:B6:6E:E7:53:E1:2C:B0:9D:FF:F4:B4:6E:F0:7F:D6:0C:7B:C5:C0:A9
                DirName:/CN=Easy-RSA CA
                serial:15:56:E8:1F:40:8E:DF:F1:1A:97:DC:88:60:5B:02:0C:1C:1E:52:DF
            X509v3 Extended Key Usage: 
                TLS Web Server Authentication
            X509v3 Key Usage: 
                Digital Signature, Key Encipherment
            X509v3 Subject Alternative Name: 
                DNS:openvpn
    Signature Algorithm: sha256WithRSAEncryption
    Signature Value:
        29:64:6b:4c:b0:ec:ae:39:9c:51:61:d2:1f:3f:28:90:a4:1f:
        fe:8b:97:29:b9:eb:71:c8:ae:9b:fe:5c:d0:f1:14:31:28:11:
        2e:d8:47:19:f9:45:f2:a8:c0:e3:e7:1f:4a:28:7c:4e:cc:f2:
        df:f2:ff:33:9c:a4:3d:50:03:48:26:8f:f3:f0:cd:89:25:fb:
        aa:96:c6:24:15:ed:a5:c9:ca:fe:80:a9:ba:b0:3b:48:2a:fa:
        7b:14:da:98:fd:c1:23:f7:fc:a7:37:18:1d:dc:07:4f:2a:b9:
        d8:34:d6:b5:e3:83:77:90:bc:b6:bd:11:0d:97:a9:23:df:33:
        0c:f0:7e:91:e1:d1:41:21:11:71:5e:8f:64:e6:fe:20:df:b1:
        3f:70:b4:95:34:86:8c:c3:88:c4:b5:61:5d:a4:91:2f:db:28:
        85:69:40:fc:d4:99:37:cd:e4:7d:80:62:25:8a:d5:33:06:c0:
        ce:46:0f:26:bd:ea:95:e9:c2:2a:f2:02:6a:55:74:5d:8f:7c:
        da:92:5a:3c:68:a7:b1:20:8d:c9:b1:b3:b7:29:f3:61:6e:70:
        61:cf:1f:c3:d8:ae:d2:ad:4f:6e:08:fb:34:79:1f:fe:b1:8c:
        11:1a:4c:48:e2:0f:03:93:bd:48:05:88:4c:ce:94:91:8a:bb:
        08:0b:f0:c1
-----BEGIN CERTIFICATE-----
MIIDajCCAlKgAwIBAgIRANzGMopDnF/QFquf9Ej0aZowDQYJKoZIhvcNAQELBQAw
FjEUMBIGA1UEAwwLRWFzeS1SU0EgQ0EwHhcNMjMwNzIzMTEwNjQ4WhcNMjUxMDI1
MTEwNjQ4WjASMRAwDgYDVQQDDAdvcGVudnBuMIIBIjANBgkqhkiG9w0BAQEFAAOC
AQ8AMIIBCgKCAQEAtbZdefDlxDtd+zbbKDEZgngxALeInjXBizz4wc56Sjpql9ce
sNeE9mOS2/MWqc7Evts6YV5aCHoAWcoZQYxuxHD8mRr5mjXZGLiL58uQxsAihP0s
TupOK4b+nQeS5Dxfyq56g+12FXC2ixFXJL2t+yDQBI72QEUuV5l4G8byN0kdaPUF
JrmGb+80OIK8ZQAGU1U7Df1zVsyYPIjbp/3LME8aFzM43ZwW1aBDPSeiD0ufIU+h
fsoD+49L69ZYXWM50a5/gF23rUHrCZl3XAqWfAMtA51fEhEgasdVvzf5U3m+beK4
TYMBy91/JriqkE+loIeiE6mYzy0LE1xQ/OFQuQIDAQABo4G2MIGzMAkGA1UdEwQC
MAAwHQYDVR0OBBYEFB3yV+TCEeIBZQ8BtRevfbYid/kbMFEGA1UdIwRKMEiAFLZu
51PhLLCd//S0bvB/1gx7xcCpoRqkGDAWMRQwEgYDVQQDDAtFYXN5LVJTQSBDQYIU
FVboH0CO3/Eal9yIYFsCDBweUt8wEwYDVR0lBAwwCgYIKwYBBQUHAwEwCwYDVR0P
BAQDAgWgMBIGA1UdEQQLMAmCB29wZW52cG4wDQYJKoZIhvcNAQELBQADggEBAClk
a0yw7K45nFFh0h8/KJCkH/6Llym563HIrpv+XNDxFDEoES7YRxn5RfKowOPnH0oo
fE7M8t/y/zOcpD1QA0gmj/PwzYkl+6qWxiQV7aXJyv6AqbqwO0gq+nsU2pj9wSP3
/Kc3GB3cB08qudg01rXjg3eQvLa9EQ2XqSPfMwzwfpHh0UEhEXFej2Tm/iDfsT9w
tJU0hozDiMS1YV2kkS/bKIVpQPzUmTfN5H2AYiWK1TMGwM5GDya96pXpwiryAmpV
dF2PfNqSWjxop7Egjcmxs7cp82FucGHPH8PYrtKtT24I+zR5H/6xjBEaTEjiDwOT
vUgFiEzOlJGKuwgL8ME=
-----END CERTIFICATE-----
